; Function Attrs: mustprogress uwtable
define void @_Z8cmpRVecsP8_IO_FILEPKcN3gmx8ArrayRefIKNS3_11BasicVectorIfEEEES8_bff(ptr noundef captures(none) %0, ptr noundef %1, ptr %2, ptr %3, ptr readonly captures(none) %4, ptr readnone captures(none) %5, i1 noundef zeroext %6, float noundef %7, float noundef %8) local_unnamed_addr #0 {
  %10 = ptrtoint ptr %3 to i64
  %11 = ptrtoint ptr %2 to i64
  %12 = sub i64 %10, %11
  %13 = sdiv exact i64 %12, 12
  %14 = trunc i64 %13 to i32
  tail call void @_Z9cmp_rvecsP8_IO_FILEPKciPA3_KfS5_bff(ptr noundef %0, ptr noundef %1, i32 noundef %14, ptr noundef %2, ptr noundef %4, i1 noundef zeroext %6, float noundef %7, float noundef %8)
  ret void
}